target datalayout = "e-m:e-p270:32:32-p271:32:32-p272:64:64-i64:64-i128:128-f80:128-n8:16:32:64-S128"
target triple = "x86_64-pc-linux-gnu"

%struct.OSQPMatrix_ = type { ptr, i32 }

; Function Attrs: nounwind uwtable
define ptr @OSQPMatrix_copy_new(ptr noundef %0) #0 {
  %2 = alloca ptr, align 8
  %3 = alloca ptr, align 8
  %4 = alloca ptr, align 8
  store ptr %0, ptr %3, align 8
  %5 = call noalias ptr @malloc(i64 noundef 16) #4
  store ptr %5, ptr %4, align 8
  %6 = load ptr, ptr %4, align 8
  %7 = icmp ne ptr %6, null
  br i1 %7, label %9, label %8

8:                                                ; preds = %1
  store ptr null, ptr %2, align 8
  br label %29

9:                                                ; preds = %1
  %10 = load ptr, ptr %3, align 8
  %11 = getelementptr inbounds %struct.OSQPMatrix_, ptr %10, i32 0, i32 1
  %12 = load i32, ptr %11, align 8
  %13 = load ptr, ptr %4, align 8
  %14 = getelementptr inbounds %struct.OSQPMatrix_, ptr %13, i32 0, i32 1
  store i32 %12, ptr %14, align 8
  %15 = load ptr, ptr %3, align 8
  %16 = getelementptr inbounds %struct.OSQPMatrix_, ptr %15, i32 0, i32 0
  %17 = load ptr, ptr %16, align 8
  %18 = call ptr @csc_copy(ptr noundef %17)
  %19 = load ptr, ptr %4, align 8
  %20 = getelementptr inbounds %struct.OSQPMatrix_, ptr %19, i32 0, i32 0
  store ptr %18, ptr %20, align 8
  %21 = load ptr, ptr %4, align 8
  %22 = getelementptr inbounds %struct.OSQPMatrix_, ptr %21, i32 0, i32 0
  %23 = load ptr, ptr %22, align 8
  %24 = icmp ne ptr %23, null
  br i1 %24, label %27, label %25

25:                                               ; preds = %9
  %26 = load ptr, ptr %4, align 8
  call void @free(ptr noundef %26) #5
  store ptr null, ptr %2, align 8
  br label %29

27:                                               ; preds = %9
  %28 = load ptr, ptr %4, align 8
  store ptr %28, ptr %2, align 8
  br label %29

29:                                               ; preds = %27, %25, %8
  %30 = load ptr, ptr %2, align 8
  ret ptr %30
}