; Function Attrs: nounwind uwtable
define noalias noundef ptr @OSQPMatrix_copy_new(ptr nocapture noundef readonly %0) local_unnamed_addr #0 {
  %2 = tail call noalias dereferenceable_or_null(16) ptr @malloc(i64 noundef 16) #8
  %.not = icmp eq ptr %2, null
  br i1 %.not, label %10, label %3

3:                                                ; preds = %1
  %4 = getelementptr inbounds i8, ptr %0, i64 8
  %5 = load i32, ptr %4, align 8
  %6 = getelementptr inbounds i8, ptr %2, i64 8
  store i32 %5, ptr %6, align 8
  %7 = load ptr, ptr %0, align 8
  %8 = tail call ptr @csc_copy(ptr noundef %7) #7
  store ptr %8, ptr %2, align 8
  %.not10 = icmp eq ptr %8, null
  br i1 %.not10, label %9, label %10

9:                                                ; preds = %3
  tail call void @free(ptr noundef nonnull %2) #7
  br label %10

10:                                               ; preds = %3, %1, %9
  %.0 = phi ptr [ null, %9 ], [ null, %1 ], [ %2, %3 ]
  ret ptr %.0
}